; ModuleID = '25/238.c'
source_filename = "25/238.c"
target datalayout = "e-m:e-p270:32:32-p271:32:32-p272:64:64-i64:64-f80:128-n8:16:32:64-S128"
target triple = "x86_64-pc-linux-gnu"

@.str = private unnamed_addr constant [3 x i8] c"%d\00", align 1
@.str.1 = private unnamed_addr constant [2 x i8] c"1\00", align 1
@.str.2 = private unnamed_addr constant [2 x i8] c"\0A\00", align 1

; Function Attrs: noinline nounwind uwtable
define dso_local i32 @main() #0 {
  %1 = alloca i32, align 4
  %2 = alloca i32, align 4
  %3 = alloca i32, align 4
  %4 = alloca i32, align 4
  %5 = alloca [500 x i32], align 16
  %6 = alloca [500 x i32], align 16
  %7 = alloca [500 x i32], align 16
  %8 = alloca i32, align 4
  store i32 0, i32* %1, align 4
  %9 = bitcast [500 x i32]* %5 to i8*
  call void @llvm.memset.p0i8.i64(i8* align 16 %9, i8 0, i64 2000, i1 false)
  %10 = bitcast [500 x i32]* %6 to i8*
  call void @llvm.memset.p0i8.i64(i8* align 16 %10, i8 0, i64 2000, i1 false)
  %11 = bitcast [500 x i32]* %7 to i8*
  call void @llvm.memset.p0i8.i64(i8* align 16 %11, i8 0, i64 2000, i1 false)
  %12 = getelementptr inbounds [500 x i32], [500 x i32]* %5, i64 0, i64 0
  store i32 1, i32* %12, align 16
  %13 = getelementptr inbounds [500 x i32], [500 x i32]* %6, i64 0, i64 0
  store i32 1, i32* %13, align 16
  %14 = call i32 (i8*, ...) @__isoc99_scanf(i8* getelementptr inbounds ([3 x i8], [3 x i8]* @.str, i64 0, i64 0), i32* %2)
  %15 = load i32, i32* %2, align 4
  %16 = icmp eq i32 %15, 0
  br i1 %16, label %17, label %19

17:                                               ; preds = %0
  %18 = call i32 (i8*, ...) @printf(i8* getelementptr inbounds ([2 x i8], [2 x i8]* @.str.1, i64 0, i64 0))
  br label %106

19:                                               ; preds = %0
  store i32 0, i32* %4, align 4
  br label %20

20:                                               ; preds = %78, %19
  %21 = load i32, i32* %4, align 4
  %22 = load i32, i32* %2, align 4
  %23 = icmp slt i32 %21, %22
  br i1 %23, label %24, label %81

24:                                               ; preds = %20
  store i32 0, i32* %8, align 4
  store i32 0, i32* %3, align 4
  br label %25

25:                                               ; preds = %56, %24
  %26 = load i32, i32* %3, align 4
  %27 = icmp slt i32 %26, 500
  br i1 %27, label %28, label %59

28:                                               ; preds = %25
  %29 = load i32, i32* %3, align 4
  %30 = sext i32 %29 to i64
  %31 = getelementptr inbounds [500 x i32], [500 x i32]* %5, i64 0, i64 %30
  %32 = load i32, i32* %31, align 4
  %33 = load i32, i32* %3, align 4
  %34 = sext i32 %33 to i64
  %35 = getelementptr inbounds [500 x i32], [500 x i32]* %6, i64 0, i64 %34
  %36 = load i32, i32* %35, align 4
  %37 = add nsw i32 %32, %36
  %38 = load i32, i32* %8, align 4
  %39 = add nsw i32 %37, %38
  %40 = load i32, i32* %3, align 4
  %41 = sext i32 %40 to i64
  %42 = getelementptr inbounds [500 x i32], [500 x i32]* %7, i64 0, i64 %41
  store i32 %39, i32* %42, align 4
  %43 = load i32, i32* %3, align 4
  %44 = sext i32 %43 to i64
  %45 = getelementptr inbounds [500 x i32], [500 x i32]* %7, i64 0, i64 %44
  %46 = load i32, i32* %45, align 4
  %47 = icmp sge i32 %46, 10
  br i1 %47, label %48, label %54

48:                                               ; preds = %28
  %49 = load i32, i32* %3, align 4
  %50 = sext i32 %49 to i64
  %51 = getelementptr inbounds [500 x i32], [500 x i32]* %7, i64 0, i64 %50
  %52 = load i32, i32* %51, align 4
  %53 = sub nsw i32 %52, 10
  store i32 %53, i32* %51, align 4
  store i32 1, i32* %8, align 4
  br label %55

54:                                               ; preds = %28
  store i32 0, i32* %8, align 4
  br label %55

55:                                               ; preds = %54, %48
  br label %56

56:                                               ; preds = %55
  %57 = load i32, i32* %3, align 4
  %58 = add nsw i32 %57, 1
  store i32 %58, i32* %3, align 4
  br label %25

59:                                               ; preds = %25
  store i32 0, i32* %3, align 4
  br label %60

60:                                               ; preds = %74, %59
  %61 = load i32, i32* %3, align 4
  %62 = icmp slt i32 %61, 500
  br i1 %62, label %63, label %77

63:                                               ; preds = %60
  %64 = load i32, i32* %3, align 4
  %65 = sext i32 %64 to i64
  %66 = getelementptr inbounds [500 x i32], [500 x i32]* %7, i64 0, i64 %65
  %67 = load i32, i32* %66, align 4
  %68 = load i32, i32* %3, align 4
  %69 = sext i32 %68 to i64
  %70 = getelementptr inbounds [500 x i32], [500 x i32]* %6, i64 0, i64 %69
  store i32 %67, i32* %70, align 4
  %71 = load i32, i32* %3, align 4
  %72 = sext i32 %71 to i64
  %73 = getelementptr inbounds [500 x i32], [500 x i32]* %5, i64 0, i64 %72
  store i32 %67, i32* %73, align 4
  br label %74

74:                                               ; preds = %63
  %75 = load i32, i32* %3, align 4
  %76 = add nsw i32 %75, 1
  store i32 %76, i32* %3, align 4
  br label %60

77:                                               ; preds = %60
  br label %78

78:                                               ; preds = %77
  %79 = load i32, i32* %4, align 4
  %80 = add nsw i32 %79, 1
  store i32 %80, i32* %4, align 4
  br label %20

81:                                               ; preds = %20
  store i32 499, i32* %3, align 4
  br label %82

82:                                               ; preds = %88, %81
  %83 = load i32, i32* %3, align 4
  %84 = sext i32 %83 to i64
  %85 = getelementptr inbounds [500 x i32], [500 x i32]* %7, i64 0, i64 %84
  %86 = load i32, i32* %85, align 4
  %87 = icmp eq i32 %86, 0
  br i1 %87, label %88, label %91

88:                                               ; preds = %82
  %89 = load i32, i32* %3, align 4
  %90 = add nsw i32 %89, -1
  store i32 %90, i32* %3, align 4
  br label %82

91:                                               ; preds = %82
  br label %92

92:                                               ; preds = %101, %91
  %93 = load i32, i32* %3, align 4
  %94 = icmp sge i32 %93, 0
  br i1 %94, label %95, label %104

95:                                               ; preds = %92
  %96 = load i32, i32* %3, align 4
  %97 = sext i32 %96 to i64
  %98 = getelementptr inbounds [500 x i32], [500 x i32]* %7, i64 0, i64 %97
  %99 = load i32, i32* %98, align 4
  %100 = call i32 (i8*, ...) @printf(i8* getelementptr inbounds ([3 x i8], [3 x i8]* @.str, i64 0, i64 0), i32 %99)
  br label %101

101:                                              ; preds = %95
  %102 = load i32, i32* %3, align 4
  %103 = add nsw i32 %102, -1
  store i32 %103, i32* %3, align 4
  br label %92

104:                                              ; preds = %92
  %105 = call i32 (i8*, ...) @printf(i8* getelementptr inbounds ([2 x i8], [2 x i8]* @.str.2, i64 0, i64 0))
  br label %106

106:                                              ; preds = %104, %17
  ret i32 0
}

; Function Attrs: argmemonly nounwind willreturn
declare void @llvm.memset.p0i8.i64(i8* nocapture writeonly, i8, i64, i1 immarg) #1

declare dso_local i32 @__isoc99_scanf(i8*, ...) #2

declare dso_local i32 @printf(i8*, ...) #2


!llvm.module.flags = !{!0}
!llvm.ident = !{!1}

!0 = !{i32 1, !"wchar_size", i32 4}
!1 = !{!"clang version 10.0.0-4ubuntu1 "}
